target datalayout = "e-m:e-p270:32:32-p271:32:32-p272:64:64-i64:64-i128:128-f80:128-n8:16:32:64-S128"
target triple = "x86_64-pc-linux-gnu"

%"class.marisa::Agent" = type { %"class.marisa::Query", %"class.marisa::Key", %"class.marisa::scoped_ptr" }
%"class.marisa::Query" = type { ptr, i64, i64 }
%"class.marisa::Key" = type { ptr, i32, %"union.marisa::Key::Union" }
%"union.marisa::Key::Union" = type { i32 }
%"class.marisa::scoped_ptr" = type { ptr }
%"class.marisa::grimoire::trie::State" = type { %"class.marisa::grimoire::vector::Vector", %"class.marisa::grimoire::vector::Vector.0", i32, i32, i32, i32 }
%"class.marisa::grimoire::vector::Vector" = type <{ %"class.marisa::scoped_array", ptr, ptr, i64, i64, i8, [7 x i8] }>
%"class.marisa::scoped_array" = type { ptr }
%"class.marisa::grimoire::vector::Vector.0" = type <{ %"class.marisa::scoped_array", ptr, ptr, i64, i64, i8, [7 x i8] }>

; Function Attrs: mustprogress nounwind uwtable
define linkonce_odr void @_ZN6marisa12scoped_arrayIcED2Ev(ptr noundef nonnull align 8 dereferenceable(8) %0) unnamed_addr #5 comdat align 2 {
  %2 = alloca ptr, align 8
  store ptr %0, ptr %2, align 8
  %3 = load ptr, ptr %2, align 8
  %4 = getelementptr inbounds %"class.marisa::scoped_array", ptr %3, i32 0, i32 0
  %5 = load ptr, ptr %4, align 8
  %6 = icmp eq ptr %5, null
  br i1 %6, label %8, label %7

7:                                                ; preds = %1
  call void @_ZdaPv(ptr noundef %5) #9
  br label %8

8:                                                ; preds = %7, %1
  ret void
}

; Function Attrs: mustprogress nounwind uwtable
define linkonce_odr void @_ZN6marisa8grimoire6vector6VectorIcED2Ev(ptr noundef nonnull align 8 dereferenceable(41) %0) unnamed_addr #5 comdat align 2 {
  %2 = alloca ptr, align 8
  %3 = alloca i64, align 8
  store ptr %0, ptr %2, align 8
  %4 = load ptr, ptr %2, align 8
  %5 = getelementptr inbounds %"class.marisa::grimoire::vector::Vector", ptr %4, i32 0, i32 1
  %6 = load ptr, ptr %5, align 8
  %7 = icmp ne ptr %6, null
  br i1 %7, label %8, label %19

8:                                                ; preds = %1
  store i64 0, ptr %3, align 8
  br label %9

9:                                                ; preds = %15, %8
  %10 = load i64, ptr %3, align 8
  %11 = getelementptr inbounds %"class.marisa::grimoire::vector::Vector", ptr %4, i32 0, i32 3
  %12 = load i64, ptr %11, align 8
  %13 = icmp ult i64 %10, %12
  br i1 %13, label %14, label %18

14:                                               ; preds = %9
  br label %15

15:                                               ; preds = %14
  %16 = load i64, ptr %3, align 8
  %17 = add i64 %16, 1
  store i64 %17, ptr %3, align 8
  br label %9, !llvm.loop !6

18:                                               ; preds = %9
  br label %19

19:                                               ; preds = %18, %1
  %20 = getelementptr inbounds %"class.marisa::grimoire::vector::Vector", ptr %4, i32 0, i32 0
  call void @_ZN6marisa12scoped_arrayIcED2Ev(ptr noundef nonnull align 8 dereferenceable(8) %20) #3
  ret void
}

; Function Attrs: mustprogress nounwind uwtable
define linkonce_odr void @_ZN6marisa8grimoire6vector6VectorINS0_4trie7HistoryEED2Ev(ptr noundef nonnull align 8 dereferenceable(41) %0) unnamed_addr #5 comdat align 2 {
  %2 = alloca ptr, align 8
  %3 = alloca i64, align 8
  store ptr %0, ptr %2, align 8
  %4 = load ptr, ptr %2, align 8
  %5 = getelementptr inbounds %"class.marisa::grimoire::vector::Vector.0", ptr %4, i32 0, i32 1
  %6 = load ptr, ptr %5, align 8
  %7 = icmp ne ptr %6, null
  br i1 %7, label %8, label %19

8:                                                ; preds = %1
  store i64 0, ptr %3, align 8
  br label %9

9:                                                ; preds = %15, %8
  %10 = load i64, ptr %3, align 8
  %11 = getelementptr inbounds %"class.marisa::grimoire::vector::Vector.0", ptr %4, i32 0, i32 3
  %12 = load i64, ptr %11, align 8
  %13 = icmp ult i64 %10, %12
  br i1 %13, label %14, label %18

14:                                               ; preds = %9
  br label %15

15:                                               ; preds = %14
  %16 = load i64, ptr %3, align 8
  %17 = add i64 %16, 1
  store i64 %17, ptr %3, align 8
  br label %9, !llvm.loop !7

18:                                               ; preds = %9
  br label %19

19:                                               ; preds = %18, %1
  %20 = getelementptr inbounds %"class.marisa::grimoire::vector::Vector.0", ptr %4, i32 0, i32 0
  call void @_ZN6marisa12scoped_arrayIcED2Ev(ptr noundef nonnull align 8 dereferenceable(8) %20) #3
  ret void
}

; Function Attrs: mustprogress nounwind uwtable
define linkonce_odr void @_ZN6marisa8grimoire4trie5StateD2Ev(ptr noundef nonnull align 8 dereferenceable(112) %0) unnamed_addr #5 comdat align 2 {
  %2 = alloca ptr, align 8
  store ptr %0, ptr %2, align 8
  %3 = load ptr, ptr %2, align 8
  %4 = getelementptr inbounds %"class.marisa::grimoire::trie::State", ptr %3, i32 0, i32 1
  call void @_ZN6marisa8grimoire6vector6VectorINS0_4trie7HistoryEED2Ev(ptr noundef nonnull align 8 dereferenceable(41) %4) #3
  %5 = getelementptr inbounds %"class.marisa::grimoire::trie::State", ptr %3, i32 0, i32 0
  call void @_ZN6marisa8grimoire6vector6VectorIcED2Ev(ptr noundef nonnull align 8 dereferenceable(41) %5) #3
  ret void
}

; Function Attrs: mustprogress nounwind uwtable
define linkonce_odr void @_ZN6marisa10scoped_ptrINS_8grimoire4trie5StateEED2Ev(ptr noundef nonnull align 8 dereferenceable(8) %0) unnamed_addr #5 comdat align 2 {
  %2 = alloca ptr, align 8
  store ptr %0, ptr %2, align 8
  %3 = load ptr, ptr %2, align 8
  %4 = getelementptr inbounds %"class.marisa::scoped_ptr", ptr %3, i32 0, i32 0
  %5 = load ptr, ptr %4, align 8
  %6 = icmp eq ptr %5, null
  br i1 %6, label %8, label %7

7:                                                ; preds = %1
  call void @_ZN6marisa8grimoire4trie5StateD2Ev(ptr noundef nonnull align 8 dereferenceable(112) %5) #3
  call void @_ZdlPv(ptr noundef %5) #9
  br label %8

8:                                                ; preds = %7, %1
  ret void
}

; Function Attrs: mustprogress nounwind uwtable
define void @_ZN6marisa5AgentD2Ev(ptr noundef nonnull align 8 dereferenceable(48) %0) unnamed_addr #5 align 2 {
  %2 = alloca ptr, align 8
  store ptr %0, ptr %2, align 8
  %3 = load ptr, ptr %2, align 8
  %4 = getelementptr inbounds %"class.marisa::Agent", ptr %3, i32 0, i32 2
  call void @_ZN6marisa10scoped_ptrINS_8grimoire4trie5StateEED2Ev(ptr noundef nonnull align 8 dereferenceable(8) %4) #3
  ret void
}