; Function Attrs: mustprogress nounwind uwtable
define void @_ZN6marisa5AgentD2Ev(ptr nocapture noundef nonnull readonly align 8 dereferenceable(48) %0) unnamed_addr #4 align 2 {
  %2 = getelementptr inbounds i8, ptr %0, i64 40
  %3 = load ptr, ptr %2, align 8
  %4 = icmp eq ptr %3, null
  br i1 %4, label %_ZN6marisa10scoped_ptrINS_8grimoire4trie5StateEED2Ev.exit, label %5

5:                                                ; preds = %1
  %6 = getelementptr inbounds i8, ptr %3, i64 48
  %7 = load ptr, ptr %6, align 8
  %8 = icmp eq ptr %7, null
  br i1 %8, label %_ZN6marisa8grimoire6vector6VectorINS0_4trie7HistoryEED2Ev.exit.i.i, label %9

9:                                                ; preds = %5
  tail call void @_ZdaPv(ptr noundef nonnull %7) #12
  br label %_ZN6marisa8grimoire6vector6VectorINS0_4trie7HistoryEED2Ev.exit.i.i

_ZN6marisa8grimoire6vector6VectorINS0_4trie7HistoryEED2Ev.exit.i.i: ; preds = %9, %5
  %10 = load ptr, ptr %3, align 8
  %11 = icmp eq ptr %10, null
  br i1 %11, label %_ZN6marisa8grimoire4trie5StateD2Ev.exit.i, label %12

12:                                               ; preds = %_ZN6marisa8grimoire6vector6VectorINS0_4trie7HistoryEED2Ev.exit.i.i
  tail call void @_ZdaPv(ptr noundef nonnull %10) #12
  br label %_ZN6marisa8grimoire4trie5StateD2Ev.exit.i

_ZN6marisa8grimoire4trie5StateD2Ev.exit.i:        ; preds = %12, %_ZN6marisa8grimoire6vector6VectorINS0_4trie7HistoryEED2Ev.exit.i.i
  tail call void @_ZdlPv(ptr noundef nonnull %3) #12
  br label %_ZN6marisa10scoped_ptrINS_8grimoire4trie5StateEED2Ev.exit

_ZN6marisa10scoped_ptrINS_8grimoire4trie5StateEED2Ev.exit: ; preds = %1, %_ZN6marisa8grimoire4trie5StateD2Ev.exit.i
  ret void
}